target datalayout = "e-m:e-p270:32:32-p271:32:32-p272:64:64-i64:64-i128:128-f80:128-n8:16:32:64-S128"
target triple = "x86_64-unknown-linux-gnu"

%"class.facebook::jsi::Value" = type { i32, %"union.facebook::jsi::Value::Data" }
%"union.facebook::jsi::Value::Data" = type { double }
%"class.facebook::jsi::Pointer" = type { ptr }

; Function Attrs: noreturn nounwind uwtable
define linkonce_odr hidden void @__clang_call_terminate(ptr noundef %0) #9 comdat {
  %2 = call ptr @__cxa_begin_catch(ptr %0) #6
  call void @_ZSt9terminatev() #15
  unreachable
}

; Function Attrs: mustprogress nounwind uwtable
define linkonce_odr void @_ZN8facebook3jsi5Value4DataD2Ev(ptr noundef nonnull align 8 dereferenceable(8) %this) unnamed_addr #0 comdat align 2 {
entry:
  %this.addr = alloca ptr, align 8
  store ptr %this, ptr %this.addr, align 8
  ret void
}

; Function Attrs: mustprogress nounwind uwtable
define linkonce_odr void @_ZN8facebook3jsi7PointerD2Ev(ptr noundef nonnull align 8 dereferenceable(8) %this) unnamed_addr #0 comdat align 2 personality ptr @__gxx_personality_v0 {
entry:
  %this.addr = alloca ptr, align 8
  store ptr %this, ptr %this.addr, align 8
  %this1 = load ptr, ptr %this.addr, align 8
  %ptr_ = getelementptr inbounds %"class.facebook::jsi::Pointer", ptr %this1, i32 0, i32 0
  %0 = load ptr, ptr %ptr_, align 8
  %tobool = icmp ne ptr %0, null
  br i1 %tobool, label %if.then, label %if.end

if.then:                                          ; preds = %entry
  %ptr_2 = getelementptr inbounds %"class.facebook::jsi::Pointer", ptr %this1, i32 0, i32 0
  %1 = load ptr, ptr %ptr_2, align 8
  %vtable = load ptr, ptr %1, align 8
  %vfn = getelementptr inbounds ptr, ptr %vtable, i64 0
  %2 = load ptr, ptr %vfn, align 8
  invoke void %2(ptr noundef nonnull align 8 dereferenceable(8) %1)
          to label %invoke.cont unwind label %terminate.lpad

invoke.cont:                                      ; preds = %if.then
  br label %if.end

if.end:                                           ; preds = %invoke.cont, %entry
  ret void

terminate.lpad:                                   ; preds = %if.then
  %3 = landingpad { ptr, i32 }
          catch ptr null
  %4 = extractvalue { ptr, i32 } %3, 0
  call void @__clang_call_terminate(ptr %4) #15
  unreachable
}

; Function Attrs: mustprogress nounwind uwtable
define linkonce_odr void @_ZN8facebook3jsi5Value4DataC2Ev(ptr noundef nonnull align 8 dereferenceable(8) %this) unnamed_addr #0 comdat align 2 {
entry:
  %this.addr = alloca ptr, align 8
  store ptr %this, ptr %this.addr, align 8
  ret void
}

; Function Attrs: mustprogress nounwind uwtable
define void @_ZN8facebook3jsi5ValueD2Ev(ptr noundef nonnull align 8 dereferenceable(16) %this) unnamed_addr #0 align 2 {
entry:
  %this.addr = alloca ptr, align 8
  store ptr %this, ptr %this.addr, align 8
  %this1 = load ptr, ptr %this.addr, align 8
  %kind_ = getelementptr inbounds %"class.facebook::jsi::Value", ptr %this1, i32 0, i32 0
  %0 = load i32, ptr %kind_, align 8
  %cmp = icmp sge i32 %0, 4
  br i1 %cmp, label %if.then, label %if.end

if.then:                                          ; preds = %entry
  %data_ = getelementptr inbounds %"class.facebook::jsi::Value", ptr %this1, i32 0, i32 1
  call void @_ZN8facebook3jsi7PointerD2Ev(ptr noundef nonnull align 8 dereferenceable(8) %data_) #6
  br label %if.end

if.end:                                           ; preds = %if.then, %entry
  %data_2 = getelementptr inbounds %"class.facebook::jsi::Value", ptr %this1, i32 0, i32 1
  call void @_ZN8facebook3jsi5Value4DataD2Ev(ptr noundef nonnull align 8 dereferenceable(8) %data_2) #6
  ret void
}

; Function Attrs: mustprogress nounwind uwtable
define linkonce_odr void @_ZN8facebook3jsi7PointerC2EOS1_(ptr noundef nonnull align 8 dereferenceable(8) %this, ptr noundef nonnull align 8 dereferenceable(8) %other) unnamed_addr #0 comdat align 2 {
entry:
  %this.addr = alloca ptr, align 8
  %other.addr = alloca ptr, align 8
  store ptr %this, ptr %this.addr, align 8
  store ptr %other, ptr %other.addr, align 8
  %this1 = load ptr, ptr %this.addr, align 8
  %ptr_ = getelementptr inbounds %"class.facebook::jsi::Pointer", ptr %this1, i32 0, i32 0
  %0 = load ptr, ptr %other.addr, align 8
  %ptr_2 = getelementptr inbounds %"class.facebook::jsi::Pointer", ptr %0, i32 0, i32 0
  %1 = load ptr, ptr %ptr_2, align 8
  store ptr %1, ptr %ptr_, align 8
  %2 = load ptr, ptr %other.addr, align 8
  %ptr_3 = getelementptr inbounds %"class.facebook::jsi::Pointer", ptr %2, i32 0, i32 0
  store ptr null, ptr %ptr_3, align 8
  ret void
}

; Function Attrs: mustprogress uwtable
define linkonce_odr void @_ZN8facebook3jsi5ValueC2ENS1_9ValueKindE(ptr noundef nonnull align 8 dereferenceable(16) %this, i32 noundef %kind) unnamed_addr #2 comdat align 2 {
entry:
  %this.addr = alloca ptr, align 8
  %kind.addr = alloca i32, align 4
  store ptr %this, ptr %this.addr, align 8
  store i32 %kind, ptr %kind.addr, align 4
  %this1 = load ptr, ptr %this.addr, align 8
  %kind_ = getelementptr inbounds %"class.facebook::jsi::Value", ptr %this1, i32 0, i32 0
  %0 = load i32, ptr %kind.addr, align 4
  store i32 %0, ptr %kind_, align 8
  %data_ = getelementptr inbounds %"class.facebook::jsi::Value", ptr %this1, i32 0, i32 1
  call void @_ZN8facebook3jsi5Value4DataC2Ev(ptr noundef nonnull align 8 dereferenceable(8) %data_)
  ret void
}

; Function Attrs: mustprogress uwtable
define void @_ZN8facebook3jsi5ValueC2EOS1_(ptr noundef nonnull align 8 dereferenceable(16) %this, ptr noundef nonnull align 8 dereferenceable(16) %other) unnamed_addr #2 align 2 personality ptr @__gxx_personality_v0 {
entry:
  %this.addr = alloca ptr, align 8
  %other.addr = alloca ptr, align 8
  %exn.slot = alloca ptr, align 8
  %ehselector.slot = alloca i32, align 4
  store ptr %this, ptr %this.addr, align 8
  store ptr %other, ptr %other.addr, align 8
  %this1 = load ptr, ptr %this.addr, align 8
  %0 = load ptr, ptr %other.addr, align 8
  %kind_ = getelementptr inbounds %"class.facebook::jsi::Value", ptr %0, i32 0, i32 0
  %1 = load i32, ptr %kind_, align 8
  call void @_ZN8facebook3jsi5ValueC2ENS1_9ValueKindE(ptr noundef nonnull align 8 dereferenceable(16) %this1, i32 noundef %1)
  %kind_2 = getelementptr inbounds %"class.facebook::jsi::Value", ptr %this1, i32 0, i32 0
  %2 = load i32, ptr %kind_2, align 8
  %cmp = icmp eq i32 %2, 2
  br i1 %cmp, label %if.then, label %if.else

if.then:                                          ; preds = %entry
  %3 = load ptr, ptr %other.addr, align 8
  %data_ = getelementptr inbounds %"class.facebook::jsi::Value", ptr %3, i32 0, i32 1
  %4 = load i8, ptr %data_, align 8
  %tobool = trunc i8 %4 to i1
  %data_3 = getelementptr inbounds %"class.facebook::jsi::Value", ptr %this1, i32 0, i32 1
  %frombool = zext i1 %tobool to i8
  store i8 %frombool, ptr %data_3, align 8
  br label %if.end16

if.else:                                          ; preds = %entry
  %kind_4 = getelementptr inbounds %"class.facebook::jsi::Value", ptr %this1, i32 0, i32 0
  %5 = load i32, ptr %kind_4, align 8
  %cmp5 = icmp eq i32 %5, 3
  br i1 %cmp5, label %if.then6, label %if.else9

if.then6:                                         ; preds = %if.else
  %6 = load ptr, ptr %other.addr, align 8
  %data_7 = getelementptr inbounds %"class.facebook::jsi::Value", ptr %6, i32 0, i32 1
  %7 = load double, ptr %data_7, align 8
  %data_8 = getelementptr inbounds %"class.facebook::jsi::Value", ptr %this1, i32 0, i32 1
  store double %7, ptr %data_8, align 8
  br label %if.end15

if.else9:                                         ; preds = %if.else
  %kind_10 = getelementptr inbounds %"class.facebook::jsi::Value", ptr %this1, i32 0, i32 0
  %8 = load i32, ptr %kind_10, align 8
  %cmp11 = icmp sge i32 %8, 4
  br i1 %cmp11, label %if.then12, label %if.end

if.then12:                                        ; preds = %if.else9
  %data_13 = getelementptr inbounds %"class.facebook::jsi::Value", ptr %this1, i32 0, i32 1
  %9 = load ptr, ptr %other.addr, align 8
  %data_14 = getelementptr inbounds %"class.facebook::jsi::Value", ptr %9, i32 0, i32 1
  invoke void @_ZN8facebook3jsi7PointerC2EOS1_(ptr noundef nonnull align 8 dereferenceable(8) %data_13, ptr noundef nonnull align 8 dereferenceable(8) %data_14)
          to label %invoke.cont unwind label %lpad

invoke.cont:                                      ; preds = %if.then12
  br label %if.end

lpad:                                             ; preds = %if.then12
  %10 = landingpad { ptr, i32 }
          cleanup
  %11 = extractvalue { ptr, i32 } %10, 0
  store ptr %11, ptr %exn.slot, align 8
  %12 = extractvalue { ptr, i32 } %10, 1
  store i32 %12, ptr %ehselector.slot, align 4
  call void @_ZN8facebook3jsi5ValueD2Ev(ptr noundef nonnull align 8 dereferenceable(16) %this1) #6
  br label %eh.resume

if.end:                                           ; preds = %invoke.cont, %if.else9
  br label %if.end15

if.end15:                                         ; preds = %if.end, %if.then6
  br label %if.end16

if.end16:                                         ; preds = %if.end15, %if.then
  %13 = load ptr, ptr %other.addr, align 8
  %kind_17 = getelementptr inbounds %"class.facebook::jsi::Value", ptr %13, i32 0, i32 0
  store i32 0, ptr %kind_17, align 8
  ret void

eh.resume:                                        ; preds = %lpad
  %exn = load ptr, ptr %exn.slot, align 8
  %sel = load i32, ptr %ehselector.slot, align 4
  %lpad.val = insertvalue { ptr, i32 } poison, ptr %exn, 0
  %lpad.val18 = insertvalue { ptr, i32 } %lpad.val, i32 %sel, 1
  resume { ptr, i32 } %lpad.val18
}