; Function Attrs: mustprogress nofree norecurse nosync nounwind willreturn memory(argmem: readwrite) uwtable
define void @_ZN8facebook3jsi5ValueC2EOS1_(ptr nocapture noundef nonnull writeonly align 8 dereferenceable(16) %this, ptr nocapture noundef nonnull align 8 dereferenceable(16) %other) unnamed_addr #12 align 2 personality ptr @__gxx_personality_v0 {
entry:
  %0 = load i32, ptr %other, align 8
  store i32 %0, ptr %this, align 8
  switch i32 %0, label %if.else9 [
    i32 2, label %if.then
    i32 3, label %if.then6
  ]

if.then:                                          ; preds = %entry
  %data_ = getelementptr inbounds i8, ptr %other, i64 8
  %1 = load i8, ptr %data_, align 8
  %2 = and i8 %1, 1
  %data_3 = getelementptr inbounds i8, ptr %this, i64 8
  store i8 %2, ptr %data_3, align 8
  br label %if.end16

if.then6:                                         ; preds = %entry
  %data_7 = getelementptr inbounds i8, ptr %other, i64 8
  %3 = load double, ptr %data_7, align 8
  %data_8 = getelementptr inbounds i8, ptr %this, i64 8
  store double %3, ptr %data_8, align 8
  br label %if.end16

if.else9:                                         ; preds = %entry
  %cmp11 = icmp sgt i32 %0, 3
  br i1 %cmp11, label %if.then12, label %if.end16

if.then12:                                        ; preds = %if.else9
  %data_13 = getelementptr inbounds i8, ptr %this, i64 8
  %data_14 = getelementptr inbounds i8, ptr %other, i64 8
  %4 = load ptr, ptr %data_14, align 8
  store ptr %4, ptr %data_13, align 8
  store ptr null, ptr %data_14, align 8
  br label %if.end16

if.end16:                                         ; preds = %if.then6, %if.then12, %if.else9, %if.then
  store i32 0, ptr %other, align 8
  ret void
}